target datalayout = "e-m:e-p270:32:32-p271:32:32-p272:64:64-i64:64-i128:128-f80:128-n8:16:32:64-S128"
target triple = "x86_64-pc-linux-gnu"

%"class.osgeo::proj::common::UnitOfMeasure" = type { %"class.osgeo::proj::util::BaseObject", %"class.std::unique_ptr.2" }
%"class.osgeo::proj::util::BaseObject" = type { ptr, %"class.std::unique_ptr" }
%"class.std::unique_ptr" = type { %"struct.std::__uniq_ptr_data" }
%"struct.std::__uniq_ptr_data" = type { %"class.std::__uniq_ptr_impl" }
%"class.std::__uniq_ptr_impl" = type { %"class.std::tuple" }
%"class.std::tuple" = type { %"struct.std::_Tuple_impl" }
%"struct.std::_Tuple_impl" = type { %"struct.std::_Head_base.1" }
%"struct.std::_Head_base.1" = type { ptr }
%"class.std::unique_ptr.2" = type { %"struct.std::__uniq_ptr_data.3" }
%"struct.std::__uniq_ptr_data.3" = type { %"class.std::__uniq_ptr_impl.4" }
%"class.std::__uniq_ptr_impl.4" = type { %"class.std::tuple.5" }
%"class.std::tuple.5" = type { %"struct.std::_Tuple_impl.6" }
%"struct.std::_Tuple_impl.6" = type { %"struct.std::_Head_base.9" }
%"struct.std::_Head_base.9" = type { ptr }

@_ZTVN5osgeo4proj6common13UnitOfMeasureE = unnamed_addr constant { [4 x ptr] } { [4 x ptr] [ptr null, ptr @_ZTIN5osgeo4proj6common13UnitOfMeasureE, ptr @_ZN5osgeo4proj6common13UnitOfMeasureD1Ev, ptr @_ZN5osgeo4proj6common13UnitOfMeasureD0Ev] }, align 8

; Function Attrs: mustprogress nounwind uwtable
define linkonce_odr hidden noundef nonnull align 8 dereferenceable(8) ptr @_ZNSt10_Head_baseILm0EPN5osgeo4proj6common13UnitOfMeasure7PrivateELb0EE7_M_headERS6_(ptr noundef nonnull align 8 dereferenceable(8) %0) #4 comdat align 2 {
  %2 = alloca ptr, align 8
  store ptr %0, ptr %2, align 8, !tbaa !345
  %3 = load ptr, ptr %2, align 8, !tbaa !345
  %4 = getelementptr inbounds nuw %"struct.std::_Head_base.9", ptr %3, i32 0, i32 0
  ret ptr %4
}

; Function Attrs: mustprogress nounwind uwtable
define linkonce_odr hidden noundef nonnull align 8 dereferenceable(8) ptr @_ZNSt11_Tuple_implILm0EJPN5osgeo4proj6common13UnitOfMeasure7PrivateESt14default_deleteIS4_EEE7_M_headERS8_(ptr noundef nonnull align 8 dereferenceable(8) %0) #4 comdat align 2 {
  %2 = alloca ptr, align 8
  store ptr %0, ptr %2, align 8, !tbaa !341
  %3 = load ptr, ptr %2, align 8, !tbaa !341
  %4 = call noundef nonnull align 8 dereferenceable(8) ptr @_ZNSt10_Head_baseILm0EPN5osgeo4proj6common13UnitOfMeasure7PrivateELb0EE7_M_headERS6_(ptr noundef nonnull align 8 dereferenceable(8) %3) #28
  ret ptr %4
}

; Function Attrs: mustprogress nounwind uwtable
define linkonce_odr hidden void @_ZNSt10_Head_baseILm1ESt14default_deleteIN5osgeo4proj6common13UnitOfMeasure7PrivateEELb1EEC2Ev(ptr noundef nonnull align 1 dereferenceable(1) %0) unnamed_addr #4 comdat align 2 {
  %2 = alloca ptr, align 8
  store ptr %0, ptr %2, align 8, !tbaa !348
  ret void
}

; Function Attrs: mustprogress nounwind uwtable
define linkonce_odr hidden noundef nonnull align 8 dereferenceable(8) ptr @_ZSt12__get_helperILm0EPN5osgeo4proj6common13UnitOfMeasure7PrivateEJSt14default_deleteIS4_EEERT0_RSt11_Tuple_implIXT_EJS8_DpT1_EE(ptr noundef nonnull align 8 dereferenceable(8) %0) #4 comdat {
  %2 = alloca ptr, align 8
  store ptr %0, ptr %2, align 8, !tbaa !341
  %3 = load ptr, ptr %2, align 8, !tbaa !341
  %4 = call noundef nonnull align 8 dereferenceable(8) ptr @_ZNSt11_Tuple_implILm0EJPN5osgeo4proj6common13UnitOfMeasure7PrivateESt14default_deleteIS4_EEE7_M_headERS8_(ptr noundef nonnull align 8 dereferenceable(8) %3) #28
  ret ptr %4
}

; Function Attrs: mustprogress nounwind uwtable
define linkonce_odr hidden void @_ZNSt10_Head_baseILm0EPN5osgeo4proj6common13UnitOfMeasure7PrivateELb0EEC2Ev(ptr noundef nonnull align 8 dereferenceable(8) %0) unnamed_addr #4 comdat align 2 {
  %2 = alloca ptr, align 8
  store ptr %0, ptr %2, align 8, !tbaa !345
  %3 = load ptr, ptr %2, align 8
  %4 = getelementptr inbounds nuw %"struct.std::_Head_base.9", ptr %3, i32 0, i32 0
  store ptr null, ptr %4, align 8, !tbaa !347
  ret void
}

; Function Attrs: mustprogress uwtable
define linkonce_odr hidden void @_ZNSt11_Tuple_implILm1EJSt14default_deleteIN5osgeo4proj6common13UnitOfMeasure7PrivateEEEEC2Ev(ptr noundef nonnull align 1 dereferenceable(1) %0) unnamed_addr #0 comdat align 2 {
  %2 = alloca ptr, align 8
  store ptr %0, ptr %2, align 8, !tbaa !343
  %3 = load ptr, ptr %2, align 8
  call void @_ZNSt10_Head_baseILm1ESt14default_deleteIN5osgeo4proj6common13UnitOfMeasure7PrivateEELb1EEC2Ev(ptr noundef nonnull align 1 dereferenceable(1) %3)
  ret void
}

; Function Attrs: mustprogress nounwind uwtable
define linkonce_odr hidden noundef nonnull align 8 dereferenceable(8) ptr @_ZSt3getILm0EJPN5osgeo4proj6common13UnitOfMeasure7PrivateESt14default_deleteIS4_EEERNSt13tuple_elementIXT_ESt5tupleIJDpT0_EEE4typeERSC_(ptr noundef nonnull align 8 dereferenceable(8) %0) #4 comdat {
  %2 = alloca ptr, align 8
  store ptr %0, ptr %2, align 8, !tbaa !339
  %3 = load ptr, ptr %2, align 8, !tbaa !339
  %4 = call noundef nonnull align 8 dereferenceable(8) ptr @_ZSt12__get_helperILm0EPN5osgeo4proj6common13UnitOfMeasure7PrivateEJSt14default_deleteIS4_EEERT0_RSt11_Tuple_implIXT_EJS8_DpT1_EE(ptr noundef nonnull align 8 dereferenceable(8) %3) #28
  ret ptr %4
}

; Function Attrs: mustprogress uwtable
define linkonce_odr hidden void @_ZNSt11_Tuple_implILm0EJPN5osgeo4proj6common13UnitOfMeasure7PrivateESt14default_deleteIS4_EEEC2Ev(ptr noundef nonnull align 8 dereferenceable(8) %0) unnamed_addr #0 comdat align 2 {
  %2 = alloca ptr, align 8
  store ptr %0, ptr %2, align 8, !tbaa !341
  %3 = load ptr, ptr %2, align 8
  call void @_ZNSt11_Tuple_implILm1EJSt14default_deleteIN5osgeo4proj6common13UnitOfMeasure7PrivateEEEEC2Ev(ptr noundef nonnull align 1 dereferenceable(1) %3)
  call void @_ZNSt10_Head_baseILm0EPN5osgeo4proj6common13UnitOfMeasure7PrivateELb0EEC2Ev(ptr noundef nonnull align 8 dereferenceable(8) %3)
  ret void
}

; Function Attrs: mustprogress nounwind uwtable
define linkonce_odr hidden noundef nonnull align 8 dereferenceable(8) ptr @_ZNSt15__uniq_ptr_implIN5osgeo4proj6common13UnitOfMeasure7PrivateESt14default_deleteIS4_EE6_M_ptrEv(ptr noundef nonnull align 8 dereferenceable(8) %0) #4 comdat align 2 {
  %2 = alloca ptr, align 8
  store ptr %0, ptr %2, align 8, !tbaa !337
  %3 = load ptr, ptr %2, align 8
  %4 = getelementptr inbounds nuw %"class.std::__uniq_ptr_impl.4", ptr %3, i32 0, i32 0
  %5 = call noundef nonnull align 8 dereferenceable(8) ptr @_ZSt3getILm0EJPN5osgeo4proj6common13UnitOfMeasure7PrivateESt14default_deleteIS4_EEERNSt13tuple_elementIXT_ESt5tupleIJDpT0_EEE4typeERSC_(ptr noundef nonnull align 8 dereferenceable(8) %4) #28
  ret ptr %5
}

; Function Attrs: mustprogress nounwind uwtable
define linkonce_odr hidden void @_ZNSt5tupleIJPN5osgeo4proj6common13UnitOfMeasure7PrivateESt14default_deleteIS4_EEEC2ILb1ETnNSt9enable_ifIXclsr17_TupleConstraintsIXT_ES5_S7_EE37__is_implicitly_default_constructibleEEbE4typeELb1EEEv(ptr noundef nonnull align 8 dereferenceable(8) %0) unnamed_addr #4 comdat align 2 personality ptr @__gxx_personality_v0 {
  %2 = alloca ptr, align 8
  store ptr %0, ptr %2, align 8, !tbaa !339
  %3 = load ptr, ptr %2, align 8
  invoke void @_ZNSt11_Tuple_implILm0EJPN5osgeo4proj6common13UnitOfMeasure7PrivateESt14default_deleteIS4_EEEC2Ev(ptr noundef nonnull align 8 dereferenceable(8) %3)
          to label %4 unwind label %5

4:                                                ; preds = %1
  ret void

5:                                                ; preds = %1
  %6 = landingpad { ptr, i32 }
          catch ptr null
  %7 = extractvalue { ptr, i32 } %6, 0
  call void @__clang_call_terminate(ptr %7) #31
  unreachable
}

; Function Attrs: mustprogress nounwind uwtable
define linkonce_odr hidden void @_ZNSt15__uniq_ptr_implIN5osgeo4proj6common13UnitOfMeasure7PrivateESt14default_deleteIS4_EEC2EPS4_(ptr noundef nonnull align 8 dereferenceable(8) %0, ptr noundef %1) unnamed_addr #4 comdat align 2 {
  %3 = alloca ptr, align 8
  %4 = alloca ptr, align 8
  store ptr %0, ptr %3, align 8, !tbaa !337
  store ptr %1, ptr %4, align 8, !tbaa !19
  %5 = load ptr, ptr %3, align 8
  %6 = getelementptr inbounds nuw %"class.std::__uniq_ptr_impl.4", ptr %5, i32 0, i32 0
  call void @_ZNSt5tupleIJPN5osgeo4proj6common13UnitOfMeasure7PrivateESt14default_deleteIS4_EEEC2ILb1ETnNSt9enable_ifIXclsr17_TupleConstraintsIXT_ES5_S7_EE37__is_implicitly_default_constructibleEEbE4typeELb1EEEv(ptr noundef nonnull align 8 dereferenceable(8) %6) #28
  %7 = load ptr, ptr %4, align 8, !tbaa !19
  %8 = call noundef nonnull align 8 dereferenceable(8) ptr @_ZNSt15__uniq_ptr_implIN5osgeo4proj6common13UnitOfMeasure7PrivateESt14default_deleteIS4_EE6_M_ptrEv(ptr noundef nonnull align 8 dereferenceable(8) %5) #28
  store ptr %7, ptr %8, align 8, !tbaa !19
  ret void
}

; Function Attrs: noinline noreturn nounwind uwtable
define linkonce_odr hidden void @__clang_call_terminate(ptr noundef %0) #10 comdat {
  %2 = call ptr @__cxa_begin_catch(ptr %0) #28
  call void @_ZSt9terminatev() #31
  unreachable
}

; Function Attrs: inlinehint mustprogress uwtable
define linkonce_odr hidden void @_ZNSt15__uniq_ptr_dataIN5osgeo4proj6common13UnitOfMeasure7PrivateESt14default_deleteIS4_ELb1ELb1EECI2St15__uniq_ptr_implIS4_S6_EEPS4_(ptr noundef nonnull align 8 dereferenceable(8) %0, ptr noundef %1) unnamed_addr #2 comdat align 2 {
  %3 = alloca ptr, align 8
  %4 = alloca ptr, align 8
  store ptr %0, ptr %3, align 8, !tbaa !335
  store ptr %1, ptr %4, align 8, !tbaa !19
  %5 = load ptr, ptr %3, align 8
  %6 = load ptr, ptr %4, align 8, !tbaa !19
  call void @_ZNSt15__uniq_ptr_implIN5osgeo4proj6common13UnitOfMeasure7PrivateESt14default_deleteIS4_EEC2EPS4_(ptr noundef nonnull align 8 dereferenceable(8) %5, ptr noundef %6)
  ret void
}

; Function Attrs: mustprogress nounwind uwtable
define linkonce_odr hidden void @_ZNSt10unique_ptrIN5osgeo4proj6common13UnitOfMeasure7PrivateESt14default_deleteIS4_EEC2IS6_vEEPS4_(ptr noundef nonnull align 8 dereferenceable(8) %0, ptr noundef %1) unnamed_addr #4 comdat align 2 personality ptr @__gxx_personality_v0 {
  %3 = alloca ptr, align 8
  %4 = alloca ptr, align 8
  store ptr %0, ptr %3, align 8, !tbaa !21
  store ptr %1, ptr %4, align 8, !tbaa !19
  %5 = load ptr, ptr %3, align 8
  %6 = getelementptr inbounds nuw %"class.std::unique_ptr.2", ptr %5, i32 0, i32 0
  %7 = load ptr, ptr %4, align 8, !tbaa !19
  invoke void @_ZNSt15__uniq_ptr_dataIN5osgeo4proj6common13UnitOfMeasure7PrivateESt14default_deleteIS4_ELb1ELb1EECI2St15__uniq_ptr_implIS4_S6_EEPS4_(ptr noundef nonnull align 8 dereferenceable(8) %6, ptr noundef %7)
          to label %8 unwind label %9

8:                                                ; preds = %2
  ret void

9:                                                ; preds = %2
  %10 = landingpad { ptr, i32 }
          catch ptr null
  %11 = extractvalue { ptr, i32 } %10, 0
  call void @__clang_call_terminate(ptr %11) #31
  unreachable
}

; Function Attrs: inlinehint mustprogress uwtable
define linkonce_odr hidden void @_ZSt11make_uniqueIN5osgeo4proj6common13UnitOfMeasure7PrivateEJRKNSt7__cxx1112basic_stringIcSt11char_traitsIcESaIcEEERdRNS3_4TypeESC_SC_EENSt8__detail9_MakeUniqIT_E15__single_objectEDpOT0_(ptr dead_on_unwind noalias writable sret(%"class.std::unique_ptr.2") align 8 %0, ptr noundef nonnull align 8 dereferenceable(32) %1, ptr noundef nonnull align 8 dereferenceable(8) %2, ptr noundef nonnull align 4 dereferenceable(4) %3, ptr noundef nonnull align 8 dereferenceable(32) %4, ptr noundef nonnull align 8 dereferenceable(32) %5) #2 comdat personality ptr @__gxx_personality_v0 {
  %7 = alloca ptr, align 8
  %8 = alloca ptr, align 8
  %9 = alloca ptr, align 8
  %10 = alloca ptr, align 8
  %11 = alloca ptr, align 8
  %12 = alloca ptr, align 8
  %13 = alloca ptr, align 8
  %14 = alloca i32, align 4
  store ptr %0, ptr %7, align 8
  store ptr %1, ptr %8, align 8, !tbaa !8
  store ptr %2, ptr %9, align 8, !tbaa !16
  store ptr %3, ptr %10, align 8, !tbaa !18
  store ptr %4, ptr %11, align 8, !tbaa !8
  store ptr %5, ptr %12, align 8, !tbaa !8
  %15 = call noalias noundef nonnull ptr @_Znwm(i64 noundef 112) #29
  %16 = load ptr, ptr %8, align 8, !tbaa !8
  %17 = load ptr, ptr %9, align 8, !tbaa !16
  %18 = load double, ptr %17, align 8, !tbaa !10
  %19 = load ptr, ptr %10, align 8, !tbaa !18
  %20 = load i32, ptr %19, align 4, !tbaa !12
  %21 = load ptr, ptr %11, align 8, !tbaa !8
  %22 = load ptr, ptr %12, align 8, !tbaa !8
  invoke void @_ZN5osgeo4proj6common13UnitOfMeasure7PrivateC2ERKNSt7__cxx1112basic_stringIcSt11char_traitsIcESaIcEEEdNS2_4TypeESB_SB_(ptr noundef nonnull align 8 dereferenceable(112) %15, ptr noundef nonnull align 8 dereferenceable(32) %16, double noundef %18, i32 noundef %20, ptr noundef nonnull align 8 dereferenceable(32) %21, ptr noundef nonnull align 8 dereferenceable(32) %22)
          to label %23 unwind label %24

23:                                               ; preds = %6
  call void @_ZNSt10unique_ptrIN5osgeo4proj6common13UnitOfMeasure7PrivateESt14default_deleteIS4_EEC2IS6_vEEPS4_(ptr noundef nonnull align 8 dereferenceable(8) %0, ptr noundef %15) #28
  ret void

24:                                               ; preds = %6
  %25 = landingpad { ptr, i32 }
          cleanup
  %26 = extractvalue { ptr, i32 } %25, 0
  store ptr %26, ptr %13, align 8
  %27 = extractvalue { ptr, i32 } %25, 1
  store i32 %27, ptr %14, align 4
  call void @_ZdlPvm(ptr noundef %15, i64 noundef 112) #30
  br label %28

28:                                               ; preds = %24
  %29 = load ptr, ptr %13, align 8
  %30 = load i32, ptr %14, align 4
  %31 = insertvalue { ptr, i32 } poison, ptr %29, 0
  %32 = insertvalue { ptr, i32 } %31, i32 %30, 1
  resume { ptr, i32 } %32
}

; Function Attrs: mustprogress uwtable
define void @_ZN5osgeo4proj6common13UnitOfMeasureC2ERKNSt7__cxx1112basic_stringIcSt11char_traitsIcESaIcEEEdNS2_4TypeESA_SA_(ptr noundef nonnull align 8 dereferenceable(24) %0, ptr noundef nonnull align 8 dereferenceable(32) %1, double noundef %2, i32 noundef %3, ptr noundef nonnull align 8 dereferenceable(32) %4, ptr noundef nonnull align 8 dereferenceable(32) %5) unnamed_addr #0 align 2 personality ptr @__gxx_personality_v0 {
  %7 = alloca ptr, align 8
  %8 = alloca ptr, align 8
  %9 = alloca double, align 8
  %10 = alloca i32, align 4
  %11 = alloca ptr, align 8
  %12 = alloca ptr, align 8
  %13 = alloca ptr, align 8
  %14 = alloca i32, align 4
  store ptr %0, ptr %7, align 8, !tbaa !3
  store ptr %1, ptr %8, align 8, !tbaa !8
  store double %2, ptr %9, align 8, !tbaa !10
  store i32 %3, ptr %10, align 4, !tbaa !12
  store ptr %4, ptr %11, align 8, !tbaa !8
  store ptr %5, ptr %12, align 8, !tbaa !8
  %15 = load ptr, ptr %7, align 8
  call void @_ZN5osgeo4proj4util10BaseObjectC2Ev(ptr noundef nonnull align 8 dereferenceable(16) %15)
  store ptr getelementptr inbounds inrange(-16, 16) ({ [4 x ptr] }, ptr @_ZTVN5osgeo4proj6common13UnitOfMeasureE, i32 0, i32 0, i32 2), ptr %15, align 8, !tbaa !14
  %16 = getelementptr inbounds nuw %"class.osgeo::proj::common::UnitOfMeasure", ptr %15, i32 0, i32 1
  %17 = load ptr, ptr %8, align 8, !tbaa !8
  %18 = load ptr, ptr %11, align 8, !tbaa !8
  %19 = load ptr, ptr %12, align 8, !tbaa !8
  invoke void @_ZSt11make_uniqueIN5osgeo4proj6common13UnitOfMeasure7PrivateEJRKNSt7__cxx1112basic_stringIcSt11char_traitsIcESaIcEEERdRNS3_4TypeESC_SC_EENSt8__detail9_MakeUniqIT_E15__single_objectEDpOT0_(ptr dead_on_unwind writable sret(%"class.std::unique_ptr.2") align 8 %16, ptr noundef nonnull align 8 dereferenceable(32) %17, ptr noundef nonnull align 8 dereferenceable(8) %9, ptr noundef nonnull align 4 dereferenceable(4) %10, ptr noundef nonnull align 8 dereferenceable(32) %18, ptr noundef nonnull align 8 dereferenceable(32) %19)
          to label %20 unwind label %21

20:                                               ; preds = %6
  ret void

21:                                               ; preds = %6
  %22 = landingpad { ptr, i32 }
          cleanup
  %23 = extractvalue { ptr, i32 } %22, 0
  store ptr %23, ptr %13, align 8
  %24 = extractvalue { ptr, i32 } %22, 1
  store i32 %24, ptr %14, align 4
  call void @_ZN5osgeo4proj4util10BaseObjectD2Ev(ptr noundef nonnull align 8 dereferenceable(16) %15) #28
  br label %25

25:                                               ; preds = %21
  %26 = load ptr, ptr %13, align 8
  %27 = load i32, ptr %14, align 4
  %28 = insertvalue { ptr, i32 } poison, ptr %26, 0
  %29 = insertvalue { ptr, i32 } %28, i32 %27, 1
  resume { ptr, i32 } %29
}