; Function Attrs: mustprogress uwtable
define void @_ZN5osgeo4proj6common13UnitOfMeasureC2ERKNSt7__cxx1112basic_stringIcSt11char_traitsIcESaIcEEEdNS2_4TypeESA_SA_(ptr noundef nonnull align 8 dereferenceable(24) %0, ptr noundef nonnull align 8 dereferenceable(32) %1, double noundef %2, i32 noundef %3, ptr noundef nonnull align 8 dereferenceable(32) %4, ptr noundef nonnull align 8 dereferenceable(32) %5) unnamed_addr #0 align 2 personality ptr @__gxx_personality_v0 {
  tail call void @_ZN5osgeo4proj4util10BaseObjectC2Ev(ptr noundef nonnull align 8 dereferenceable(16) %0)
  store ptr getelementptr inbounds nuw inrange(-16, 16) (i8, ptr @_ZTVN5osgeo4proj6common13UnitOfMeasureE, i64 16), ptr %0, align 8, !tbaa !3
  tail call void @llvm.experimental.noalias.scope.decl(metadata !6)
  %7 = invoke noalias noundef nonnull dereferenceable(112) ptr @_Znwm(i64 noundef 112) #38
          to label %.noexc unwind label %12

.noexc:                                           ; preds = %6
  invoke void @_ZN5osgeo4proj6common13UnitOfMeasure7PrivateC2ERKNSt7__cxx1112basic_stringIcSt11char_traitsIcESaIcEEEdNS2_4TypeESB_SB_(ptr noundef nonnull align 8 dereferenceable(112) %7, ptr noundef nonnull align 8 dereferenceable(32) %1, double noundef %2, i32 noundef %3, ptr noundef nonnull align 8 dereferenceable(32) %4, ptr noundef nonnull align 8 dereferenceable(32) %5)
          to label %10 unwind label %8, !noalias !6

8:                                                ; preds = %.noexc
  %9 = landingpad { ptr, i32 }
          cleanup
  tail call void @_ZdlPvm(ptr noundef nonnull %7, i64 noundef 112) #39, !noalias !6
  br label %.body

10:                                               ; preds = %.noexc
  %11 = getelementptr inbounds nuw i8, ptr %0, i64 16
  store ptr %7, ptr %11, align 8, !tbaa !9, !alias.scope !6
  ret void

12:                                               ; preds = %6
  %13 = landingpad { ptr, i32 }
          cleanup
  br label %.body

.body:                                            ; preds = %8, %12
  %eh.lpad-body = phi { ptr, i32 } [ %13, %12 ], [ %9, %8 ]
  tail call void @_ZN5osgeo4proj4util10BaseObjectD2Ev(ptr noundef nonnull align 8 dereferenceable(16) %0) #40
  resume { ptr, i32 } %eh.lpad-body
}